; ModuleID = '40/1839.c'
source_filename = "40/1839.c"
target datalayout = "e-m:e-p270:32:32-p271:32:32-p272:64:64-i64:64-f80:128-n8:16:32:64-S128"
target triple = "x86_64-pc-linux-gnu"

@.str = private unnamed_addr constant [16 x i8] c"%lf%lf%lf%lf%lf\00", align 1
@.str.1 = private unnamed_addr constant [2 x i8] c"\0A\00", align 1
@.str.2 = private unnamed_addr constant [6 x i8] c"%.4lf\00", align 1
@.str.3 = private unnamed_addr constant [15 x i8] c"Invalid input\0A\00", align 1

; Function Attrs: noinline nounwind uwtable
define dso_local i32 @main() #0 {
  %1 = alloca i32, align 4
  %2 = alloca double, align 8
  %3 = alloca double, align 8
  %4 = alloca double, align 8
  %5 = alloca double, align 8
  %6 = alloca double, align 8
  %7 = alloca double, align 8
  store i32 0, i32* %1, align 4
  %8 = call i32 (i8*, ...) @__isoc99_scanf(i8* getelementptr inbounds ([16 x i8], [16 x i8]* @.str, i64 0, i64 0), double* %2, double* %3, double* %4, double* %5, double* %6)
  %9 = call i32 (i8*, ...) @printf(i8* getelementptr inbounds ([2 x i8], [2 x i8]* @.str.1, i64 0, i64 0))
  %10 = load double, double* %2, align 8
  %11 = load double, double* %3, align 8
  %12 = load double, double* %4, align 8
  %13 = load double, double* %5, align 8
  %14 = load double, double* %6, align 8
  %15 = call double @sq(double %10, double %11, double %12, double %13, double %14)
  store double %15, double* %7, align 8
  %16 = load double, double* %7, align 8
  %17 = fcmp ogt double %16, 0.000000e+00
  br i1 %17, label %18, label %21

18:                                               ; preds = %0
  %19 = load double, double* %7, align 8
  %20 = call i32 (i8*, ...) @printf(i8* getelementptr inbounds ([6 x i8], [6 x i8]* @.str.2, i64 0, i64 0), double %19)
  br label %23

21:                                               ; preds = %0
  %22 = call i32 (i8*, ...) @printf(i8* getelementptr inbounds ([15 x i8], [15 x i8]* @.str.3, i64 0, i64 0))
  br label %23

23:                                               ; preds = %21, %18
  %24 = load i32, i32* %1, align 4
  ret i32 %24
}

declare dso_local i32 @__isoc99_scanf(i8*, ...) #1

declare dso_local i32 @printf(i8*, ...) #1

; Function Attrs: noinline nounwind uwtable
define dso_local double @sq(double %0, double %1, double %2, double %3, double %4) #0 {
  %6 = alloca double, align 8
  %7 = alloca double, align 8
  %8 = alloca double, align 8
  %9 = alloca double, align 8
  %10 = alloca double, align 8
  %11 = alloca double, align 8
  %12 = alloca double, align 8
  %13 = alloca double, align 8
  %14 = alloca double, align 8
  store double %0, double* %6, align 8
  store double %1, double* %7, align 8
  store double %2, double* %8, align 8
  store double %3, double* %9, align 8
  store double %4, double* %10, align 8
  %15 = load double, double* %10, align 8
  %16 = fdiv double %15, 3.600000e+02
  %17 = fmul double %16, 0x400921FB4D12D84A
  store double %17, double* %12, align 8
  %18 = load double, double* %12, align 8
  %19 = call double @cos(double %18) #3
  store double %19, double* %13, align 8
  %20 = load double, double* %6, align 8
  %21 = load double, double* %7, align 8
  %22 = fadd double %20, %21
  %23 = load double, double* %8, align 8
  %24 = fadd double %22, %23
  %25 = load double, double* %9, align 8
  %26 = fadd double %24, %25
  %27 = fdiv double %26, 2.000000e+00
  store double %27, double* %14, align 8
  %28 = load double, double* %14, align 8
  %29 = load double, double* %6, align 8
  %30 = fsub double %28, %29
  %31 = load double, double* %14, align 8
  %32 = load double, double* %7, align 8
  %33 = fsub double %31, %32
  %34 = fmul double %30, %33
  %35 = load double, double* %14, align 8
  %36 = load double, double* %8, align 8
  %37 = fsub double %35, %36
  %38 = fmul double %34, %37
  %39 = load double, double* %14, align 8
  %40 = load double, double* %9, align 8
  %41 = fsub double %39, %40
  %42 = fmul double %38, %41
  %43 = load double, double* %6, align 8
  %44 = load double, double* %7, align 8
  %45 = fmul double %43, %44
  %46 = load double, double* %8, align 8
  %47 = fmul double %45, %46
  %48 = load double, double* %9, align 8
  %49 = fmul double %47, %48
  %50 = load double, double* %13, align 8
  %51 = fmul double %49, %50
  %52 = load double, double* %13, align 8
  %53 = fmul double %51, %52
  %54 = fsub double %42, %53
  %55 = fcmp ogt double %54, 0.000000e+00
  br i1 %55, label %56, label %85

56:                                               ; preds = %5
  %57 = load double, double* %14, align 8
  %58 = load double, double* %6, align 8
  %59 = fsub double %57, %58
  %60 = load double, double* %14, align 8
  %61 = load double, double* %7, align 8
  %62 = fsub double %60, %61
  %63 = fmul double %59, %62
  %64 = load double, double* %14, align 8
  %65 = load double, double* %8, align 8
  %66 = fsub double %64, %65
  %67 = fmul double %63, %66
  %68 = load double, double* %14, align 8
  %69 = load double, double* %9, align 8
  %70 = fsub double %68, %69
  %71 = fmul double %67, %70
  %72 = load double, double* %6, align 8
  %73 = load double, double* %7, align 8
  %74 = fmul double %72, %73
  %75 = load double, double* %8, align 8
  %76 = fmul double %74, %75
  %77 = load double, double* %9, align 8
  %78 = fmul double %76, %77
  %79 = load double, double* %13, align 8
  %80 = fmul double %78, %79
  %81 = load double, double* %13, align 8
  %82 = fmul double %80, %81
  %83 = fsub double %71, %82
  %84 = call double @sqrt(double %83) #3
  store double %84, double* %11, align 8
  br label %86

85:                                               ; preds = %5
  store double 0.000000e+00, double* %11, align 8
  br label %86

86:                                               ; preds = %85, %56
  %87 = load double, double* %11, align 8
  ret double %87
}

; Function Attrs: nounwind
declare dso_local double @cos(double) #2

; Function Attrs: nounwind
declare dso_local double @sqrt(double) #2


!llvm.module.flags = !{!0}
!llvm.ident = !{!1}

!0 = !{i32 1, !"wchar_size", i32 4}
!1 = !{!"clang version 10.0.0-4ubuntu1 "}
